Certificate:
    Data:
        Version: 3 (0x2)
        Serial Number: 13 (0xd)
        Signature Algorithm: md5WithRSAEncryption
        Issuer: C=US, ST=California, L=Oakland, O=Neosign, OU=Random Dept, CN=nowhere.example.com/emailAddress=neon@webdav.org
        Validity
            Not Before: Jan  1 01:01:01 2002 GMT
            Not After : Feb  1 01:01:01 2002 GMT
        Subject: C=GB, ST=Berkshire, O=C2Net, CN=www.example.com
        Subject Public Key Info:
            Public Key Algorithm: rsaEncryption
            RSA Public Key: (512 bit)
                Modulus (512 bit):
                    00:f3:45:4e:6c:67:cf:82:59:03:ef:3e:4a:89:c3:
                    d2:a5:a0:48:13:d8:5a:b3:65:1f:51:4f:fa:9b:26:
                    e4:41:99:1a:61:89:1a:f4:83:b2:4e:87:93:2b:ec:
                    b5:da:29:28:5e:74:52:e1:1a:27:6e:b7:22:8a:c0:
                    86:49:9d:18:6d
                Exponent: 65537 (0x10001)
        X509v3 extensions:
            X509v3 Basic Constraints: 
            CA:FALSE
    Signature Algorithm: md5WithRSAEncryption
        32:51:21:cc:95:ea:b1:90:62:74:6d:51:9f:13:34:75:ac:9c:
        6d:99:aa:7f:d5:4a:90:d7:17:f5:3b:55:dc:d7:28:38:98:89:
        c1:bc:77:b5:c6:de:40:cd:18:da:95:d6:18:4d:34:ad:e9:59:
        8b:56:a7:30:70:70:46:fb:11:89
-----BEGIN CERTIFICATE-----
MIIB5DCCAY6gAwIBAgIBDTANBgkqhkiG9w0BAQQFADCBmjELMAkGA1UEBhMCVVMx
EzARBgNVBAgTCkNhbGlmb3JuaWExEDAOBgNVBAcTB09ha2xhbmQxEDAOBgNVBAoT
B05lb3NpZ24xFDASBgNVBAsTC1JhbmRvbSBEZXB0MRwwGgYDVQQDExNub3doZXJl
LmV4YW1wbGUuY29tMR4wHAYJKoZIhvcNAQkBFg9uZW9uQHdlYmRhdi5vcmcwHhcN
MDIwMTAxMDEwMTAxWhcNMDIwMjAxMDEwMTAxWjBLMQswCQYDVQQGEwJHQjESMBAG
A1UECBMJQmVya3NoaXJlMQ4wDAYDVQQKEwVDMk5ldDEYMBYGA1UEAxMPd3d3LmV4
YW1wbGUuY29tMFwwDQYJKoZIhvcNAQEBBQADSwAwSAJBAPNFTmxnz4JZA+8+SonD
0qWgSBPYWrNlH1FP+psm5EGZGmGJGvSDsk6HkyvstdopKF50UuEaJ263IorAhkmd
GG0CAwEAAaMNMAswCQYDVR0TBAIwADANBgkqhkiG9w0BAQQFAANBADJRIcyV6rGQ
YnRtUZ8TNHWsnG2Zqn/VSpDXF/U7VdzXKDiYicG8d7XG3kDNGNqV1hhNNK3pWYtW
pzBwcEb7EYk=
-----END CERTIFICATE-----
