Certificate:
    Data:
        Version: 3 (0x2)
        Serial Number: 14 (0xe)
        Signature Algorithm: md5WithRSAEncryption
        Issuer: C=US, ST=California, L=Oakland, O=Neosign, OU=Random Dept, CN=nowhere.example.com/emailAddress=neon@webdav.org
        Validity
            Not Before: Jan  1 01:01:01 2021 GMT
            Not After : Feb  1 01:01:01 2022 GMT
        Subject: C=GB, ST=Suffolk, O=C2Net, CN=another.example.com
        Subject Public Key Info:
            Public Key Algorithm: rsaEncryption
            RSA Public Key: (512 bit)
                Modulus (512 bit):
                    00:f3:45:4e:6c:67:cf:82:59:03:ef:3e:4a:89:c3:
                    d2:a5:a0:48:13:d8:5a:b3:65:1f:51:4f:fa:9b:26:
                    e4:41:99:1a:61:89:1a:f4:83:b2:4e:87:93:2b:ec:
                    b5:da:29:28:5e:74:52:e1:1a:27:6e:b7:22:8a:c0:
                    86:49:9d:18:6d
                Exponent: 65537 (0x10001)
        X509v3 extensions:
            X509v3 Basic Constraints: 
            CA:FALSE
    Signature Algorithm: md5WithRSAEncryption
        95:5c:2d:d4:19:2d:e4:42:8f:fd:1a:09:d3:fe:bf:ff:12:ff:
        59:53:c0:18:87:80:a3:65:2e:6f:4d:d5:41:1a:81:5b:d9:c2:
        2f:c5:d8:1d:4e:2b:ab:07:44:c8:6d:7f:da:13:f7:0b:f1:0f:
        18:87:43:f0:09:9c:3c:26:c2:47
-----BEGIN CERTIFICATE-----
MIIB5jCCAZCgAwIBAgIBDjANBgkqhkiG9w0BAQQFADCBmjELMAkGA1UEBhMCVVMx
EzARBgNVBAgTCkNhbGlmb3JuaWExEDAOBgNVBAcTB09ha2xhbmQxEDAOBgNVBAoT
B05lb3NpZ24xFDASBgNVBAsTC1JhbmRvbSBEZXB0MRwwGgYDVQQDExNub3doZXJl
LmV4YW1wbGUuY29tMR4wHAYJKoZIhvcNAQkBFg9uZW9uQHdlYmRhdi5vcmcwHhcN
MjEwMTAxMDEwMTAxWhcNMjIwMjAxMDEwMTAxWjBNMQswCQYDVQQGEwJHQjEQMA4G
A1UECBMHU3VmZm9sazEOMAwGA1UEChMFQzJOZXQxHDAaBgNVBAMTE2Fub3RoZXIu
ZXhhbXBsZS5jb20wXDANBgkqhkiG9w0BAQEFAANLADBIAkEA80VObGfPglkD7z5K
icPSpaBIE9has2UfUU/6mybkQZkaYYka9IOyToeTK+y12ikoXnRS4RonbrciisCG
SZ0YbQIDAQABow0wCzAJBgNVHRMEAjAAMA0GCSqGSIb3DQEBBAUAA0EAlVwt1Bkt
5EKP/RoJ0/6//xL/WVPAGIeAo2Uub03VQRqBW9nCL8XYHU4rqwdEyG1/2hP3C/EP
GIdD8AmcPCbCRw==
-----END CERTIFICATE-----
